target datalayout = "e-m:e-p270:32:32-p271:32:32-p272:64:64-i64:64-i128:128-f80:128-n8:16:32:64-S128"
target triple = "x86_64-unknown-linux-gnu"

%struct.BlockLimits = type { i32, i64, i32, i64, i32, i32, i32, i64, i32, i64, i64, i32, i8, i32, i32, i32, i32, i32, i32, i32 }
%struct.BlockDriverState = type { i32, i8, i8, i8, i8, i8, ptr, ptr, ptr, %struct.anon.1, i8, [4096 x i8], [4096 x i8], [4096 x i8], [16 x i8], ptr, [4096 x i8], %struct.BlockLimits, i32, i32, i32, i32, [32 x i8], %union.anon, %union.anon.2, %union.anon.3, i32, [16 x %struct.anon.4], ptr, %struct.anon.5, ptr, ptr, %struct.anon.6, ptr, ptr, i32, ptr, i64, i64, %struct.QemuMutex, %struct.anon.7, %struct.Stat64, i32, i32, i32, i32, i32, i32, %struct.QemuMutex, %struct.anon.8, %struct.CoQueue, i8, i32, i8, %struct.CoMutex, ptr, ptr }
%struct.anon.1 = type { ptr }
%union.anon = type { %struct.QTailQLink }
%struct.QTailQLink = type { ptr, ptr }
%union.anon.2 = type { %struct.QTailQLink }
%union.anon.3 = type { %struct.QTailQLink }
%struct.anon.4 = type { ptr }
%struct.anon.5 = type { ptr }
%struct.anon.6 = type { ptr }
%struct.anon.7 = type { ptr }
%struct.Stat64 = type { i64 }
%struct.QemuMutex = type { %union.pthread_mutex_t, i8 }
%union.pthread_mutex_t = type { %struct.__pthread_mutex_s }
%struct.__pthread_mutex_s = type { i32, i32, i32, i32, i32, i16, i16, %struct.__pthread_internal_list }
%struct.__pthread_internal_list = type { ptr, ptr }
%struct.anon.8 = type { ptr }
%struct.CoQueue = type { %struct.anon.9 }
%struct.anon.9 = type { ptr, ptr }
%struct.CoMutex = type { i32, ptr, %struct.anon.10, %struct.anon.10, i32, i32, ptr }
%struct.anon.10 = type { ptr }
%struct.BlockDriver = type { ptr, i32, i8, i8, i8, i8, i8, i8, ptr, ptr, ptr, ptr, ptr, ptr, ptr, ptr, ptr, ptr, ptr, ptr, ptr, ptr, ptr, ptr, ptr, ptr, ptr, ptr, ptr, ptr, ptr, ptr, ptr, ptr, ptr, ptr, ptr, ptr, ptr, ptr, ptr, ptr, ptr, ptr, ptr, ptr, ptr, ptr, ptr, ptr, ptr, ptr, ptr, ptr, ptr, ptr, ptr, ptr, ptr, ptr, ptr, %struct.anon.11, ptr, ptr, ptr, ptr, ptr, ptr, ptr, ptr, ptr, ptr, ptr, ptr, ptr, ptr, ptr, ptr, ptr, ptr, ptr, ptr, ptr, ptr, ptr, ptr, ptr, ptr, ptr, ptr, ptr, ptr, ptr, ptr, ptr, ptr, ptr, ptr, ptr, ptr, ptr, ptr, ptr, ptr, ptr, ptr, ptr, ptr, ptr, ptr, ptr }
%struct.anon.11 = type { ptr, ptr }

@.str.4 = private unnamed_addr constant [13 x i8] c"coroutine_fn\00", section "llvm.metadata"
@.str.5 = private unnamed_addr constant [111 x i8] c"/home/dtcxzyw/WorkSpace/Projects/compilers/llvm-opt-benchmark/bench/qemu/qemu/include/block/block_int-common.h\00", section "llvm.metadata"

; Function Attrs: nounwind sspstrong uwtable
define dso_local void @bdrv_wakeup(ptr noundef %bs) #0 {
entry:
  %bs.addr = alloca ptr, align 8
  store ptr %bs, ptr %bs.addr, align 8
  br label %do.body

do.body:                                          ; preds = %entry
  br label %do.end

do.end:                                           ; preds = %do.body
  call void @aio_wait_kick()
  ret void
}

; Function Attrs: nounwind sspstrong uwtable
define dso_local void @bdrv_dec_in_flight(ptr noundef %bs) #0 {
entry:
  %bs.addr = alloca ptr, align 8
  %.atomictmp = alloca i32, align 4
  %atomic-temp = alloca i32, align 4
  store ptr %bs, ptr %bs.addr, align 8
  br label %do.body

do.body:                                          ; preds = %entry
  br label %do.end

do.end:                                           ; preds = %do.body
  %0 = load ptr, ptr %bs.addr, align 8
  %in_flight = getelementptr inbounds %struct.BlockDriverState, ptr %0, i32 0, i32 43
  store i32 1, ptr %.atomictmp, align 4
  %1 = load i32, ptr %.atomictmp, align 4
  %2 = atomicrmw sub ptr %in_flight, i32 %1 seq_cst, align 4
  store i32 %2, ptr %atomic-temp, align 4
  %3 = load ptr, ptr %bs.addr, align 8
  call void @bdrv_wakeup(ptr noundef %3)
  ret void
}

; Function Attrs: nounwind sspstrong uwtable
define dso_local void @bdrv_inc_in_flight(ptr noundef %bs) #0 {
entry:
  %bs.addr = alloca ptr, align 8
  %.atomictmp = alloca i32, align 4
  %atomic-temp = alloca i32, align 4
  store ptr %bs, ptr %bs.addr, align 8
  br label %do.body

do.body:                                          ; preds = %entry
  br label %do.end

do.end:                                           ; preds = %do.body
  %0 = load ptr, ptr %bs.addr, align 8
  %in_flight = getelementptr inbounds %struct.BlockDriverState, ptr %0, i32 0, i32 43
  store i32 1, ptr %.atomictmp, align 4
  %1 = load i32, ptr %.atomictmp, align 4
  %2 = atomicrmw add ptr %in_flight, i32 %1 seq_cst, align 4
  store i32 %2, ptr %atomic-temp, align 4
  ret void
}

; Function Attrs: nounwind sspstrong uwtable
define dso_local i32 @bdrv_co_pdiscard_snapshot(ptr noundef %bs, i64 noundef %offset, i64 noundef %bytes) #0 {
entry:
  %retval = alloca i32, align 4
  %bs.addr = alloca ptr, align 8
  %offset.addr = alloca i64, align 8
  %bytes.addr = alloca i64, align 8
  %drv = alloca ptr, align 8
  %ret = alloca i32, align 4
  store ptr %bs, ptr %bs.addr, align 8
  store i64 %offset, ptr %offset.addr, align 8
  store i64 %bytes, ptr %bytes.addr, align 8
  %0 = load ptr, ptr %bs.addr, align 8
  %drv1 = getelementptr inbounds %struct.BlockDriverState, ptr %0, i32 0, i32 6
  %1 = load ptr, ptr %drv1, align 8
  store ptr %1, ptr %drv, align 8
  br label %do.body

do.body:                                          ; preds = %entry
  br label %do.end

do.end:                                           ; preds = %do.body
  call void @assert_bdrv_graph_readable()
  %2 = load ptr, ptr %drv, align 8
  %tobool = icmp ne ptr %2, null
  br i1 %tobool, label %if.end, label %if.then

if.then:                                          ; preds = %do.end
  store i32 -123, ptr %retval, align 4
  br label %return

if.end:                                           ; preds = %do.end
  %3 = load ptr, ptr %drv, align 8
  %bdrv_co_pdiscard_snapshot = getelementptr inbounds %struct.BlockDriver, ptr %3, i32 0, i32 81
  %4 = call ptr @llvm.ptr.annotation.p0.p0(ptr %bdrv_co_pdiscard_snapshot, ptr @.str.4, ptr @.str.5, i32 662, ptr null)
  %5 = load ptr, ptr %4, align 8
  %tobool2 = icmp ne ptr %5, null
  br i1 %tobool2, label %if.end4, label %if.then3

if.then3:                                         ; preds = %if.end
  store i32 -95, ptr %retval, align 4
  br label %return

if.end4:                                          ; preds = %if.end
  %6 = load ptr, ptr %bs.addr, align 8
  call void @bdrv_inc_in_flight(ptr noundef %6)
  %7 = load ptr, ptr %drv, align 8
  %bdrv_co_pdiscard_snapshot5 = getelementptr inbounds %struct.BlockDriver, ptr %7, i32 0, i32 81
  %8 = call ptr @llvm.ptr.annotation.p0.p0(ptr %bdrv_co_pdiscard_snapshot5, ptr @.str.4, ptr @.str.5, i32 662, ptr null)
  %9 = load ptr, ptr %8, align 8
  %10 = load ptr, ptr %bs.addr, align 8
  %11 = load i64, ptr %offset.addr, align 8
  %12 = load i64, ptr %bytes.addr, align 8
  %call = call i32 %9(ptr noundef %10, i64 noundef %11, i64 noundef %12)
  store i32 %call, ptr %ret, align 4
  %13 = load ptr, ptr %bs.addr, align 8
  call void @bdrv_dec_in_flight(ptr noundef %13)
  %14 = load i32, ptr %ret, align 4
  store i32 %14, ptr %retval, align 4
  br label %return

return:                                           ; preds = %if.end4, %if.then3, %if.then
  %15 = load i32, ptr %retval, align 4
  ret i32 %15
}