; Function Attrs: nounwind sspstrong uwtable
define dso_local i32 @bdrv_co_pdiscard_snapshot(ptr noundef %bs, i64 noundef %offset, i64 noundef %bytes) #0 {
entry:
  %drv1 = getelementptr inbounds nuw i8, ptr %bs, i64 16
  %0 = load ptr, ptr %drv1, align 8
  tail call void @assert_bdrv_graph_readable() #15
  %tobool.not = icmp eq ptr %0, null
  br i1 %tobool.not, label %return, label %if.end

if.end:                                           ; preds = %entry
  %bdrv_co_pdiscard_snapshot = getelementptr inbounds nuw i8, ptr %0, i64 616
  %1 = tail call ptr @llvm.ptr.annotation.p0.p0(ptr nonnull %bdrv_co_pdiscard_snapshot, ptr nonnull @.str.4, ptr nonnull @.str.5, i32 662, ptr null)
  %2 = load ptr, ptr %1, align 8
  %tobool2.not = icmp eq ptr %2, null
  br i1 %tobool2.not, label %return, label %if.end4

if.end4:                                          ; preds = %if.end
  %in_flight.i = getelementptr inbounds nuw i8, ptr %bs, i64 16972
  %3 = atomicrmw add ptr %in_flight.i, i32 1 seq_cst, align 4
  %4 = tail call ptr @llvm.ptr.annotation.p0.p0(ptr nonnull %bdrv_co_pdiscard_snapshot, ptr nonnull @.str.4, ptr nonnull @.str.5, i32 662, ptr null)
  %5 = load ptr, ptr %4, align 8
  %call = tail call i32 %5(ptr noundef nonnull %bs, i64 noundef %offset, i64 noundef %bytes) #15
  %6 = atomicrmw sub ptr %in_flight.i, i32 1 seq_cst, align 4
  tail call void @aio_wait_kick() #15
  br label %return

return:                                           ; preds = %if.end, %entry, %if.end4
  %retval.0 = phi i32 [ %call, %if.end4 ], [ -123, %entry ], [ -95, %if.end ]
  ret i32 %retval.0
}